; Function Attrs: mustprogress uwtable
define hidden void @_ZN2cv18getColumnSumFilterEiiiid(ptr dead_on_unwind noalias writable writeonly sret(%"struct.cv::Ptr.40") align 8 captures(none) %0, i32 noundef %1, i32 noundef %2, i32 noundef %3, i32 noundef %4, double noundef %5) local_unnamed_addr #0 personality ptr @__gxx_personality_v0 {
  %7 = alloca %"class.cv::utils::trace::details::Region", align 8
  call void @llvm.lifetime.start.p0(i64 16, ptr nonnull %7) #24
  call void @_ZN2cv5utils5trace7details6RegionC1ERKNS3_21LocationStaticStorageE(ptr noundef nonnull align 8 dereferenceable(12) %7, ptr noundef nonnull align 8 dereferenceable(32) @_ZZN2cv18getColumnSumFilterEiiiidE25__cv_trace_location_fn300)
  invoke void @_ZN2cv12cpu_baseline18getColumnSumFilterEiiiid(ptr dead_on_unwind writable sret(%"struct.cv::Ptr.40") align 8 %0, i32 noundef %1, i32 noundef %2, i32 noundef %3, i32 noundef %4, double noundef %5)
          to label %8 unwind label %15

8:                                                ; preds = %6
  %9 = getelementptr inbounds nuw i8, ptr %7, i64 8
  %10 = load i32, ptr %9, align 8, !tbaa !67
  %.not.i = icmp eq i32 %10, 0
  br i1 %.not.i, label %_ZN2cv5utils5trace7details6RegionD2Ev.exit, label %11

11:                                               ; preds = %8
  invoke void @_ZN2cv5utils5trace7details6Region7destroyEv(ptr noundef nonnull align 8 dereferenceable(12) %7)
          to label %_ZN2cv5utils5trace7details6RegionD2Ev.exit unwind label %12

12:                                               ; preds = %11
  %13 = landingpad { ptr, i32 }
          catch ptr null
  %14 = extractvalue { ptr, i32 } %13, 0
  call void @__clang_call_terminate(ptr %14) #28
  unreachable

_ZN2cv5utils5trace7details6RegionD2Ev.exit:       ; preds = %8, %11
  call void @llvm.lifetime.end.p0(i64 16, ptr nonnull %7) #24
  ret void

15:                                               ; preds = %6
  %16 = landingpad { ptr, i32 }
          cleanup
  call void @_ZN2cv5utils5trace7details6RegionD2Ev(ptr noundef nonnull align 8 dereferenceable(12) %7) #24
  call void @llvm.lifetime.end.p0(i64 16, ptr nonnull %7) #24
  resume { ptr, i32 } %16
}